; Function Attrs: mustprogress nofree norecurse nosync nounwind willreturn memory(argmem: read) uwtable
define hidden noundef i64 @_ZNK4cvc58internal3smt14ContextManager16getNumUserLevelsEv(ptr nocapture noundef nonnull readonly align 8 dereferenceable(61) %this) local_unnamed_addr #6 align 2 {
entry:
  %d_userLevels = getelementptr inbounds i8, ptr %this, i64 32
  %_M_finish.i = getelementptr inbounds i8, ptr %this, i64 40
  %0 = load ptr, ptr %_M_finish.i, align 8
  %1 = load ptr, ptr %d_userLevels, align 8
  %sub.ptr.lhs.cast.i = ptrtoint ptr %0 to i64
  %sub.ptr.rhs.cast.i = ptrtoint ptr %1 to i64
  %sub.ptr.sub.i = sub i64 %sub.ptr.lhs.cast.i, %sub.ptr.rhs.cast.i
  %sub.ptr.div.i = ashr exact i64 %sub.ptr.sub.i, 2
  ret i64 %sub.ptr.div.i
}